target datalayout = "e-m:e-p270:32:32-p271:32:32-p272:64:64-i64:64-i128:128-f80:128-n8:16:32:64-S128"
target triple = "x86_64-pc-linux-gnu"

%struct.Aig_Obj_t_ = type { %union.anon, ptr, ptr, i64, i32, i32, %union.anon.0 }
%union.anon = type { ptr }
%union.anon.0 = type { ptr }

; Function Attrs: inlinehint nounwind uwtable
define internal ptr @Saig_ObjNext(ptr noundef %0, ptr noundef %1) #3 {
  %3 = alloca ptr, align 8
  %4 = alloca ptr, align 8
  store ptr %0, ptr %3, align 8, !tbaa !55
  store ptr %1, ptr %4, align 8, !tbaa !3
  %5 = load ptr, ptr %3, align 8, !tbaa !55
  %6 = load ptr, ptr %4, align 8, !tbaa !3
  %7 = getelementptr inbounds nuw %struct.Aig_Obj_t_, ptr %6, i32 0, i32 5
  %8 = load i32, ptr %7, align 4, !tbaa !51
  %9 = sext i32 %8 to i64
  %10 = getelementptr inbounds ptr, ptr %5, i64 %9
  %11 = load ptr, ptr %10, align 8, !tbaa !3
  ret ptr %11
}

; Function Attrs: nounwind uwtable
define i32 @Saig_StrSimIsEqual(ptr noundef %0, ptr noundef %1) #0 {
  %3 = alloca i32, align 4
  %4 = alloca ptr, align 8
  %5 = alloca ptr, align 8
  %6 = alloca ptr, align 8
  %7 = alloca ptr, align 8
  %8 = alloca i32, align 4
  %9 = alloca i32, align 4
  store ptr %0, ptr %4, align 8, !tbaa !3
  store ptr %1, ptr %5, align 8, !tbaa !3
  call void @llvm.lifetime.start.p0(i64 8, ptr %6) #10
  %10 = load ptr, ptr %4, align 8, !tbaa !3
  %11 = getelementptr inbounds nuw %struct.Aig_Obj_t_, ptr %10, i32 0, i32 6
  %12 = load ptr, ptr %11, align 8, !tbaa !10
  store ptr %12, ptr %6, align 8, !tbaa !11
  call void @llvm.lifetime.start.p0(i64 8, ptr %7) #10
  %13 = load ptr, ptr %5, align 8, !tbaa !3
  %14 = getelementptr inbounds nuw %struct.Aig_Obj_t_, ptr %13, i32 0, i32 6
  %15 = load ptr, ptr %14, align 8, !tbaa !10
  store ptr %15, ptr %7, align 8, !tbaa !11
  call void @llvm.lifetime.start.p0(i64 4, ptr %8) #10
  store i32 0, ptr %8, align 4, !tbaa !8
  br label %16

16:                                               ; preds = %33, %2
  %17 = load i32, ptr %8, align 4, !tbaa !8
  %18 = icmp slt i32 %17, 16
  br i1 %18, label %19, label %36

19:                                               ; preds = %16
  %20 = load ptr, ptr %6, align 8, !tbaa !11
  %21 = load i32, ptr %8, align 4, !tbaa !8
  %22 = sext i32 %21 to i64
  %23 = getelementptr inbounds i32, ptr %20, i64 %22
  %24 = load i32, ptr %23, align 4, !tbaa !8
  %25 = load ptr, ptr %7, align 8, !tbaa !11
  %26 = load i32, ptr %8, align 4, !tbaa !8
  %27 = sext i32 %26 to i64
  %28 = getelementptr inbounds i32, ptr %25, i64 %27
  %29 = load i32, ptr %28, align 4, !tbaa !8
  %30 = icmp ne i32 %24, %29
  br i1 %30, label %31, label %32

31:                                               ; preds = %19
  store i32 0, ptr %3, align 4
  store i32 1, ptr %9, align 4
  br label %37

32:                                               ; preds = %19
  br label %33

33:                                               ; preds = %32
  %34 = load i32, ptr %8, align 4, !tbaa !8
  %35 = add nsw i32 %34, 1
  store i32 %35, ptr %8, align 4, !tbaa !8
  br label %16, !llvm.loop !15

36:                                               ; preds = %16
  store i32 1, ptr %3, align 4
  store i32 1, ptr %9, align 4
  br label %37

37:                                               ; preds = %36, %31
  call void @llvm.lifetime.end.p0(i64 4, ptr %8) #10
  call void @llvm.lifetime.end.p0(i64 8, ptr %7) #10
  call void @llvm.lifetime.end.p0(i64 8, ptr %6) #10
  %38 = load i32, ptr %3, align 4
  ret i32 %38
}

; Function Attrs: nounwind uwtable
define i32 @Saig_StrSimHash(ptr noundef %0) #0 {
  %2 = alloca ptr, align 8
  %3 = alloca ptr, align 8
  %4 = alloca i32, align 4
  %5 = alloca i32, align 4
  store ptr %0, ptr %2, align 8, !tbaa !3
  call void @llvm.lifetime.start.p0(i64 8, ptr %3) #10
  call void @llvm.lifetime.start.p0(i64 4, ptr %4) #10
  store i32 0, ptr %4, align 4, !tbaa !8
  call void @llvm.lifetime.start.p0(i64 4, ptr %5) #10
  %6 = load ptr, ptr %2, align 8, !tbaa !3
  %7 = getelementptr inbounds nuw %struct.Aig_Obj_t_, ptr %6, i32 0, i32 6
  %8 = load ptr, ptr %7, align 8, !tbaa !10
  store ptr %8, ptr %3, align 8, !tbaa !11
  store i32 0, ptr %5, align 4, !tbaa !8
  br label %9

9:                                                ; preds = %26, %1
  %10 = load i32, ptr %5, align 4, !tbaa !8
  %11 = icmp slt i32 %10, 16
  br i1 %11, label %12, label %29

12:                                               ; preds = %9
  %13 = load ptr, ptr %3, align 8, !tbaa !11
  %14 = load i32, ptr %5, align 4, !tbaa !8
  %15 = sext i32 %14 to i64
  %16 = getelementptr inbounds i32, ptr %13, i64 %15
  %17 = load i32, ptr %16, align 4, !tbaa !8
  %18 = load i32, ptr %5, align 4, !tbaa !8
  %19 = and i32 %18, 127
  %20 = sext i32 %19 to i64
  %21 = getelementptr inbounds [128 x i32], ptr @Saig_StrSimHash.s_SPrimes, i64 0, i64 %20
  %22 = load i32, ptr %21, align 4, !tbaa !8
  %23 = mul i32 %17, %22
  %24 = load i32, ptr %4, align 4, !tbaa !8
  %25 = xor i32 %24, %23
  store i32 %25, ptr %4, align 4, !tbaa !8
  br label %26

26:                                               ; preds = %12
  %27 = load i32, ptr %5, align 4, !tbaa !8
  %28 = add nsw i32 %27, 1
  store i32 %28, ptr %5, align 4, !tbaa !8
  br label %9, !llvm.loop !13

29:                                               ; preds = %9
  %30 = load i32, ptr %4, align 4, !tbaa !8
  call void @llvm.lifetime.end.p0(i64 4, ptr %5) #10
  call void @llvm.lifetime.end.p0(i64 4, ptr %4) #10
  call void @llvm.lifetime.end.p0(i64 8, ptr %3) #10
  ret i32 %30
}

; Function Attrs: nounwind uwtable
define ptr @Saig_StrSimTableLookup(ptr noundef %0, ptr noundef %1, i32 noundef %2, ptr noundef %3) #0 {
  %5 = alloca ptr, align 8
  %6 = alloca ptr, align 8
  %7 = alloca ptr, align 8
  %8 = alloca i32, align 4
  %9 = alloca ptr, align 8
  %10 = alloca ptr, align 8
  %11 = alloca i32, align 4
  %12 = alloca i32, align 4
  store ptr %0, ptr %6, align 8, !tbaa !55
  store ptr %1, ptr %7, align 8, !tbaa !55
  store i32 %2, ptr %8, align 4, !tbaa !8
  store ptr %3, ptr %9, align 8, !tbaa !3
  call void @llvm.lifetime.start.p0(i64 8, ptr %10) #10
  call void @llvm.lifetime.start.p0(i64 4, ptr %11) #10
  %13 = load ptr, ptr %9, align 8, !tbaa !3
  %14 = call i32 @Saig_StrSimHash(ptr noundef %13)
  %15 = load i32, ptr %8, align 4, !tbaa !8
  %16 = urem i32 %14, %15
  store i32 %16, ptr %11, align 4, !tbaa !8
  %17 = load ptr, ptr %6, align 8, !tbaa !55
  %18 = load i32, ptr %11, align 4, !tbaa !8
  %19 = sext i32 %18 to i64
  %20 = getelementptr inbounds ptr, ptr %17, i64 %19
  %21 = load ptr, ptr %20, align 8, !tbaa !3
  store ptr %21, ptr %10, align 8, !tbaa !3
  br label %22

22:                                               ; preds = %33, %4
  %23 = load ptr, ptr %10, align 8, !tbaa !3
  %24 = icmp ne ptr %23, null
  br i1 %24, label %25, label %37

25:                                               ; preds = %22
  %26 = load ptr, ptr %10, align 8, !tbaa !3
  %27 = load ptr, ptr %9, align 8, !tbaa !3
  %28 = call i32 @Saig_StrSimIsEqual(ptr noundef %26, ptr noundef %27)
  %29 = icmp ne i32 %28, 0
  br i1 %29, label %30, label %32

30:                                               ; preds = %25
  %31 = load ptr, ptr %10, align 8, !tbaa !3
  store ptr %31, ptr %5, align 8
  store i32 1, ptr %12, align 4
  br label %38

32:                                               ; preds = %25
  br label %33

33:                                               ; preds = %32
  %34 = load ptr, ptr %7, align 8, !tbaa !55
  %35 = load ptr, ptr %10, align 8, !tbaa !3
  %36 = call ptr @Saig_ObjNext(ptr noundef %34, ptr noundef %35)
  store ptr %36, ptr %10, align 8, !tbaa !3
  br label %22, !llvm.loop !56

37:                                               ; preds = %22
  store ptr null, ptr %5, align 8
  store i32 1, ptr %12, align 4
  br label %38

38:                                               ; preds = %37, %30
  call void @llvm.lifetime.end.p0(i64 4, ptr %11) #10
  call void @llvm.lifetime.end.p0(i64 8, ptr %10) #10
  %39 = load ptr, ptr %5, align 8
  ret ptr %39
}