; Function Attrs: nofree norecurse nosync nounwind memory(read, inaccessiblemem: none) uwtable
define ptr @Saig_StrSimTableLookup(ptr noundef readonly captures(none) %0, ptr noundef readonly captures(none) %1, i32 noundef %2, ptr noundef readonly captures(none) %3) local_unnamed_addr #0 {
  %5 = getelementptr inbounds nuw i8, ptr %3, i64 40
  %6 = load ptr, ptr %5, align 8, !tbaa !3
  br label %7

7:                                                ; preds = %7, %4
  %indvars.iv.i = phi i64 [ 0, %4 ], [ %indvars.iv.next.i, %7 ]
  %.078.i = phi i32 [ 0, %4 ], [ %13, %7 ]
  %8 = getelementptr inbounds nuw i32, ptr %6, i64 %indvars.iv.i
  %9 = load i32, ptr %8, align 4, !tbaa !6
  %10 = getelementptr inbounds nuw [128 x i32], ptr @Saig_StrSimHash.s_SPrimes, i64 0, i64 %indvars.iv.i
  %11 = load i32, ptr %10, align 4, !tbaa !6
  %12 = mul i32 %11, %9
  %13 = xor i32 %12, %.078.i
  %indvars.iv.next.i = add nuw nsw i64 %indvars.iv.i, 1
  %exitcond.not.i = icmp eq i64 %indvars.iv.next.i, 16
  br i1 %exitcond.not.i, label %Saig_StrSimHash.exit, label %7, !llvm.loop !8

Saig_StrSimHash.exit:                             ; preds = %7
  %14 = urem i32 %13, %2
  %15 = sext i32 %14 to i64
  %16 = getelementptr inbounds ptr, ptr %0, i64 %15
  %.01020 = load ptr, ptr %16, align 8, !tbaa !38
  %.not21 = icmp eq ptr %.01020, null
  br i1 %.not21, label %Saig_StrSimIsEqual.exit, label %.lr.ph

.lr.ph:                                           ; preds = %Saig_StrSimHash.exit, %25
  %.01022 = phi ptr [ %.010, %25 ], [ %.01020, %Saig_StrSimHash.exit ]
  %17 = getelementptr inbounds nuw i8, ptr %.01022, i64 40
  %18 = load ptr, ptr %17, align 8, !tbaa !3
  br label %20

19:                                               ; preds = %20
  %indvars.iv.next.i13 = add nuw nsw i64 %indvars.iv.i12, 1
  %exitcond.not.i14 = icmp eq i64 %indvars.iv.next.i13, 16
  br i1 %exitcond.not.i14, label %Saig_StrSimIsEqual.exit, label %20, !llvm.loop !10

20:                                               ; preds = %19, %.lr.ph
  %indvars.iv.i12 = phi i64 [ 0, %.lr.ph ], [ %indvars.iv.next.i13, %19 ]
  %21 = getelementptr inbounds nuw i32, ptr %18, i64 %indvars.iv.i12
  %22 = load i32, ptr %21, align 4, !tbaa !6
  %23 = getelementptr inbounds nuw i32, ptr %6, i64 %indvars.iv.i12
  %24 = load i32, ptr %23, align 4, !tbaa !6
  %.not.i = icmp eq i32 %22, %24
  br i1 %.not.i, label %19, label %25

25:                                               ; preds = %20
  %26 = getelementptr i8, ptr %.01022, i64 36
  %.010.val = load i32, ptr %26, align 4, !tbaa !37
  %27 = sext i32 %.010.val to i64
  %28 = getelementptr inbounds ptr, ptr %1, i64 %27
  %.010 = load ptr, ptr %28, align 8, !tbaa !38
  %.not = icmp eq ptr %.010, null
  br i1 %.not, label %Saig_StrSimIsEqual.exit, label %.lr.ph, !llvm.loop !52

Saig_StrSimIsEqual.exit:                          ; preds = %25, %19, %Saig_StrSimHash.exit
  %.01019 = phi ptr [ null, %Saig_StrSimHash.exit ], [ %.01022, %19 ], [ null, %25 ]
  ret ptr %.01019
}